; Function Attrs: nofree norecurse nosync nounwind memory(readwrite, inaccessiblemem: none) uwtable
define void @SetToZero(ptr noundef readonly captures(none) %0) local_unnamed_addr #6 {
  %2 = load i32, ptr %0, align 8, !tbaa !20
  switch i32 %2, label %.loopexit [
    i32 1, label %.preheader
    i32 2, label %15
  ]

.preheader:                                       ; preds = %1
  %3 = getelementptr inbounds nuw i8, ptr %0, i64 16
  %4 = load i64, ptr %3, align 8, !tbaa !17
  %5 = icmp sgt i64 %4, 0
  br i1 %5, label %.lr.ph37, label %.loopexit

.lr.ph37:                                         ; preds = %.preheader
  %6 = getelementptr inbounds nuw i8, ptr %0, i64 72
  %7 = load ptr, ptr %6, align 8, !tbaa !12
  %8 = getelementptr inbounds nuw i8, ptr %0, i64 8
  %9 = load i64, ptr %8, align 8, !tbaa !16
  %10 = icmp sgt i64 %9, 0
  br i1 %10, label %.lr.ph34.us.preheader, label %.loopexit

.lr.ph34.us.preheader:                            ; preds = %.lr.ph37
  %11 = shl nuw i64 %9, 3
  br label %.lr.ph34.us

.lr.ph34.us:                                      ; preds = %.lr.ph34.us.preheader, %.lr.ph34.us
  %.02436.us = phi i64 [ %14, %.lr.ph34.us ], [ 0, %.lr.ph34.us.preheader ]
  %12 = getelementptr inbounds nuw ptr, ptr %7, i64 %.02436.us
  %13 = load ptr, ptr %12, align 8, !tbaa !13
  tail call void @llvm.memset.p0.i64(ptr align 8 %13, i8 0, i64 %11, i1 false), !tbaa !27
  %14 = add nuw nsw i64 %.02436.us, 1
  %exitcond41.not = icmp eq i64 %14, %4
  br i1 %exitcond41.not, label %.loopexit, label %.lr.ph34.us, !llvm.loop !31

15:                                               ; preds = %1
  %16 = getelementptr inbounds nuw i8, ptr %0, i64 32
  %17 = load i64, ptr %16, align 8, !tbaa !23
  %18 = getelementptr inbounds nuw i8, ptr %0, i64 40
  %19 = load i64, ptr %18, align 8, !tbaa !24
  %20 = add i64 %19, %17
  %21 = getelementptr inbounds nuw i8, ptr %0, i64 8
  %22 = load i64, ptr %21, align 8, !tbaa !16
  %23 = icmp sgt i64 %22, 0
  br i1 %23, label %.lr.ph31, label %.loopexit

.lr.ph31:                                         ; preds = %15
  %24 = getelementptr inbounds nuw i8, ptr %0, i64 72
  %25 = load ptr, ptr %24, align 8, !tbaa !12
  %26 = getelementptr inbounds nuw i8, ptr %0, i64 48
  %27 = load i64, ptr %26, align 8, !tbaa !25
  %28 = sub i64 0, %17
  %.not27 = icmp slt i64 %20, 0
  br i1 %.not27, label %.loopexit, label %.lr.ph.preheader

.lr.ph.preheader:                                 ; preds = %.lr.ph31
  %29 = shl i64 %20, 3
  %30 = add i64 %29, 8
  br label %.lr.ph

.lr.ph:                                           ; preds = %.lr.ph.preheader, %.lr.ph
  %.12529 = phi i64 [ %35, %.lr.ph ], [ 0, %.lr.ph.preheader ]
  %31 = getelementptr inbounds nuw ptr, ptr %25, i64 %.12529
  %32 = load ptr, ptr %31, align 8, !tbaa !13
  %33 = getelementptr inbounds double, ptr %32, i64 %27
  %34 = getelementptr inbounds double, ptr %33, i64 %28
  tail call void @llvm.memset.p0.i64(ptr align 8 %34, i8 0, i64 %30, i1 false), !tbaa !27
  %35 = add nuw nsw i64 %.12529, 1
  %exitcond.not = icmp eq i64 %35, %22
  br i1 %exitcond.not, label %.loopexit, label %.lr.ph, !llvm.loop !32

.loopexit:                                        ; preds = %.lr.ph, %.lr.ph34.us, %.lr.ph31, %.lr.ph37, %15, %.preheader, %1
  ret void
}